; Function Attrs: mustprogress nofree nounwind uwtable
define internal noundef ptr @"_ZZN4pkpy6FileIO9_registerEPNS_2VMEPNS_8PyObjectES4_EN3$_68__invokeES2_NS_8ArgsViewE"(ptr noundef readonly captures(none) %0, ptr readonly captures(none) %1, ptr readnone captures(none) %2) #9 align 2 {
  %4 = load ptr, ptr %1, align 8
  %5 = getelementptr inbounds nuw i8, ptr %4, i64 24
  %6 = load ptr, ptr %5, align 8
  %7 = icmp eq ptr %6, null
  br i1 %7, label %"_ZZN4pkpy6FileIO9_registerEPNS_2VMEPNS_8PyObjectES4_ENK3$_6clES2_NS_8ArgsViewE.exit", label %8

8:                                                ; preds = %3
  %9 = tail call i32 @fclose(ptr noundef nonnull %6)
  store ptr null, ptr %5, align 8
  br label %"_ZZN4pkpy6FileIO9_registerEPNS_2VMEPNS_8PyObjectES4_ENK3$_6clES2_NS_8ArgsViewE.exit"

"_ZZN4pkpy6FileIO9_registerEPNS_2VMEPNS_8PyObjectES4_ENK3$_6clES2_NS_8ArgsViewE.exit": ; preds = %3, %8
  %10 = getelementptr inbounds nuw i8, ptr %0, i64 264520
  %11 = load ptr, ptr %10, align 8
  ret ptr %11
}